
rv32ui/jalr.elf:     file format elf32-littleriscv


Disassembly of section .text:

00000000 <_start>:
   0:	00000093          	addi	x1,x0,0
   4:	00000113          	addi	x2,x0,0
   8:	00000193          	addi	x3,x0,0
   c:	00000213          	addi	x4,x0,0
  10:	00000293          	addi	x5,x0,0
  14:	00000313          	addi	x6,x0,0
  18:	00000393          	addi	x7,x0,0
  1c:	00000413          	addi	x8,x0,0
  20:	00000493          	addi	x9,x0,0
  24:	00000513          	addi	x10,x0,0
  28:	00000593          	addi	x11,x0,0
  2c:	00000613          	addi	x12,x0,0
  30:	00000693          	addi	x13,x0,0
  34:	00000713          	addi	x14,x0,0
  38:	00000793          	addi	x15,x0,0
  3c:	00000813          	addi	x16,x0,0
  40:	00000893          	addi	x17,x0,0
  44:	00000913          	addi	x18,x0,0
  48:	00000993          	addi	x19,x0,0
  4c:	00000a13          	addi	x20,x0,0
  50:	00000a93          	addi	x21,x0,0
  54:	00000b13          	addi	x22,x0,0
  58:	00000b93          	addi	x23,x0,0
  5c:	00000c13          	addi	x24,x0,0
  60:	00000c93          	addi	x25,x0,0
  64:	00000d13          	addi	x26,x0,0
  68:	00000d93          	addi	x27,x0,0
  6c:	00000e13          	addi	x28,x0,0
  70:	00000e93          	addi	x29,x0,0
  74:	00000f13          	addi	x30,x0,0
  78:	00000f93          	addi	x31,x0,0
  7c:	01000297          	auipc	x5,0x1000
  80:	f8428293          	addi	x5,x5,-124 # 1000000 <_erodata>
  84:	02000317          	auipc	x6,0x2000
  88:	f7c30313          	addi	x6,x6,-132 # 2000000 <_ebss>
  8c:	02000397          	auipc	x7,0x2000
  90:	f7438393          	addi	x7,x7,-140 # 2000000 <_ebss>
  94:	00730c63          	beq	x6,x7,ac <_start+0xac>
  98:	0002ae03          	lw	x28,0(x5)
  9c:	01c32023          	sw	x28,0(x6)
  a0:	00428293          	addi	x5,x5,4
  a4:	00430313          	addi	x6,x6,4
  a8:	fedff06f          	jal	x0,94 <_start+0x94>
  ac:	02000297          	auipc	x5,0x2000
  b0:	f5428293          	addi	x5,x5,-172 # 2000000 <_ebss>
  b4:	02000317          	auipc	x6,0x2000
  b8:	f4c30313          	addi	x6,x6,-180 # 2000000 <_ebss>
  bc:	00000393          	addi	x7,x0,0
  c0:	00628863          	beq	x5,x6,d0 <test_2>
  c4:	0072a023          	sw	x7,0(x5)
  c8:	00428293          	addi	x5,x5,4
  cc:	ff5ff06f          	jal	x0,c0 <_start+0xc0>

000000d0 <test_2>:
  d0:	00200193          	addi	x3,x0,2
  d4:	00000293          	addi	x5,x0,0
  d8:	00000317          	auipc	x6,0x0
  dc:	01030313          	addi	x6,x6,16 # e8 <target_2>
  e0:	000302e7          	jalr	x5,0(x6)

000000e4 <linkaddr_2>:
  e4:	0e00006f          	jal	x0,1c4 <fail>

000000e8 <target_2>:
  e8:	00000317          	auipc	x6,0x0
  ec:	ffc30313          	addi	x6,x6,-4 # e4 <linkaddr_2>
  f0:	0c629a63          	bne	x5,x6,1c4 <fail>

000000f4 <test_3>:
  f4:	00300193          	addi	x3,x0,3
  f8:	00000297          	auipc	x5,0x0
  fc:	01028293          	addi	x5,x5,16 # 108 <target_3>
 100:	000282e7          	jalr	x5,0(x5)

00000104 <linkaddr_3>:
 104:	0c00006f          	jal	x0,1c4 <fail>

00000108 <target_3>:
 108:	00000317          	auipc	x6,0x0
 10c:	ffc30313          	addi	x6,x6,-4 # 104 <linkaddr_3>
 110:	0a629a63          	bne	x5,x6,1c4 <fail>

00000114 <test_4>:
 114:	00400193          	addi	x3,x0,4
 118:	00000213          	addi	x4,x0,0
 11c:	00000317          	auipc	x6,0x0
 120:	01030313          	addi	x6,x6,16 # 12c <test_4+0x18>
 124:	000306e7          	jalr	x13,0(x6)
 128:	08301e63          	bne	x0,x3,1c4 <fail>
 12c:	00120213          	addi	x4,x4,1 # 1 <_start+0x1>
 130:	00200293          	addi	x5,x0,2
 134:	fe5214e3          	bne	x4,x5,11c <test_4+0x8>

00000138 <test_5>:
 138:	00500193          	addi	x3,x0,5
 13c:	00000213          	addi	x4,x0,0
 140:	00000317          	auipc	x6,0x0
 144:	01430313          	addi	x6,x6,20 # 154 <test_5+0x1c>
 148:	00000013          	addi	x0,x0,0
 14c:	000306e7          	jalr	x13,0(x6)
 150:	06301a63          	bne	x0,x3,1c4 <fail>
 154:	00120213          	addi	x4,x4,1 # 1 <_start+0x1>
 158:	00200293          	addi	x5,x0,2
 15c:	fe5212e3          	bne	x4,x5,140 <test_5+0x8>

00000160 <test_6>:
 160:	00600193          	addi	x3,x0,6
 164:	00000213          	addi	x4,x0,0
 168:	00000317          	auipc	x6,0x0
 16c:	01830313          	addi	x6,x6,24 # 180 <test_6+0x20>
 170:	00000013          	addi	x0,x0,0
 174:	00000013          	addi	x0,x0,0
 178:	000306e7          	jalr	x13,0(x6)
 17c:	04301463          	bne	x0,x3,1c4 <fail>
 180:	00120213          	addi	x4,x4,1 # 1 <_start+0x1>
 184:	00200293          	addi	x5,x0,2
 188:	fe5210e3          	bne	x4,x5,168 <test_6+0x8>

0000018c <test_7>:
 18c:	00700193          	addi	x3,x0,7
 190:	00100293          	addi	x5,x0,1
 194:	00000317          	auipc	x6,0x0
 198:	01c30313          	addi	x6,x6,28 # 1b0 <test_7+0x24>
 19c:	ffc30067          	jalr	x0,-4(x6)
 1a0:	00128293          	addi	x5,x5,1
 1a4:	00128293          	addi	x5,x5,1
 1a8:	00128293          	addi	x5,x5,1
 1ac:	00128293          	addi	x5,x5,1
 1b0:	00128293          	addi	x5,x5,1
 1b4:	00128293          	addi	x5,x5,1
 1b8:	00400393          	addi	x7,x0,4
 1bc:	00729463          	bne	x5,x7,1c4 <fail>
 1c0:	00301e63          	bne	x0,x3,1dc <pass>

000001c4 <fail>:
 1c4:	00018063          	beq	x3,x0,1c4 <fail>
 1c8:	00018593          	addi	x11,x3,0
 1cc:	10200513          	addi	x10,x0,258
 1d0:	01f01013          	slli	x0,x0,0x1f
 1d4:	00100073          	ebreak
 1d8:	40705013          	srai	x0,x0,0x7

000001dc <pass>:
 1dc:	00100193          	addi	x3,x0,1
 1e0:	10100513          	addi	x10,x0,257
 1e4:	01f01013          	slli	x0,x0,0x1f
 1e8:	00100073          	ebreak
 1ec:	40705013          	srai	x0,x0,0x7
 1f0:	00100073          	ebreak
	...
