
rv32ui/sll.elf:     file format elf32-littleriscv


Disassembly of section .text:

00000000 <_start>:
   0:	00000093          	addi	x1,x0,0
   4:	00000113          	addi	x2,x0,0
   8:	00000193          	addi	x3,x0,0
   c:	00000213          	addi	x4,x0,0
  10:	00000293          	addi	x5,x0,0
  14:	00000313          	addi	x6,x0,0
  18:	00000393          	addi	x7,x0,0
  1c:	00000413          	addi	x8,x0,0
  20:	00000493          	addi	x9,x0,0
  24:	00000513          	addi	x10,x0,0
  28:	00000593          	addi	x11,x0,0
  2c:	00000613          	addi	x12,x0,0
  30:	00000693          	addi	x13,x0,0
  34:	00000713          	addi	x14,x0,0
  38:	00000793          	addi	x15,x0,0
  3c:	00000813          	addi	x16,x0,0
  40:	00000893          	addi	x17,x0,0
  44:	00000913          	addi	x18,x0,0
  48:	00000993          	addi	x19,x0,0
  4c:	00000a13          	addi	x20,x0,0
  50:	00000a93          	addi	x21,x0,0
  54:	00000b13          	addi	x22,x0,0
  58:	00000b93          	addi	x23,x0,0
  5c:	00000c13          	addi	x24,x0,0
  60:	00000c93          	addi	x25,x0,0
  64:	00000d13          	addi	x26,x0,0
  68:	00000d93          	addi	x27,x0,0
  6c:	00000e13          	addi	x28,x0,0
  70:	00000e93          	addi	x29,x0,0
  74:	00000f13          	addi	x30,x0,0
  78:	00000f93          	addi	x31,x0,0
  7c:	01000297          	auipc	x5,0x1000
  80:	f8428293          	addi	x5,x5,-124 # 1000000 <_erodata>
  84:	02000317          	auipc	x6,0x2000
  88:	f7c30313          	addi	x6,x6,-132 # 2000000 <_ebss>
  8c:	02000397          	auipc	x7,0x2000
  90:	f7438393          	addi	x7,x7,-140 # 2000000 <_ebss>
  94:	00730c63          	beq	x6,x7,ac <_start+0xac>
  98:	0002ae03          	lw	x28,0(x5)
  9c:	01c32023          	sw	x28,0(x6)
  a0:	00428293          	addi	x5,x5,4
  a4:	00430313          	addi	x6,x6,4
  a8:	fedff06f          	jal	x0,94 <_start+0x94>
  ac:	02000297          	auipc	x5,0x2000
  b0:	f5428293          	addi	x5,x5,-172 # 2000000 <_ebss>
  b4:	02000317          	auipc	x6,0x2000
  b8:	f4c30313          	addi	x6,x6,-180 # 2000000 <_ebss>
  bc:	00000393          	addi	x7,x0,0
  c0:	00628863          	beq	x5,x6,d0 <test_2>
  c4:	0072a023          	sw	x7,0(x5)
  c8:	00428293          	addi	x5,x5,4
  cc:	ff5ff06f          	jal	x0,c0 <_start+0xc0>

000000d0 <test_2>:
  d0:	00200193          	addi	x3,x0,2
  d4:	00100593          	addi	x11,x0,1
  d8:	00000613          	addi	x12,x0,0
  dc:	00c59733          	sll	x14,x11,x12
  e0:	00100393          	addi	x7,x0,1
  e4:	52771e63          	bne	x14,x7,620 <fail>

000000e8 <test_3>:
  e8:	00300193          	addi	x3,x0,3
  ec:	00100593          	addi	x11,x0,1
  f0:	00100613          	addi	x12,x0,1
  f4:	00c59733          	sll	x14,x11,x12
  f8:	00200393          	addi	x7,x0,2
  fc:	52771263          	bne	x14,x7,620 <fail>

00000100 <test_4>:
 100:	00400193          	addi	x3,x0,4
 104:	00100593          	addi	x11,x0,1
 108:	00700613          	addi	x12,x0,7
 10c:	00c59733          	sll	x14,x11,x12
 110:	08000393          	addi	x7,x0,128
 114:	50771663          	bne	x14,x7,620 <fail>

00000118 <test_5>:
 118:	00500193          	addi	x3,x0,5
 11c:	00100593          	addi	x11,x0,1
 120:	00e00613          	addi	x12,x0,14
 124:	00c59733          	sll	x14,x11,x12
 128:	000043b7          	lui	x7,0x4
 12c:	4e771a63          	bne	x14,x7,620 <fail>

00000130 <test_6>:
 130:	00600193          	addi	x3,x0,6
 134:	00100593          	addi	x11,x0,1
 138:	01f00613          	addi	x12,x0,31
 13c:	00c59733          	sll	x14,x11,x12
 140:	800003b7          	lui	x7,0x80000
 144:	4c771e63          	bne	x14,x7,620 <fail>

00000148 <test_7>:
 148:	00700193          	addi	x3,x0,7
 14c:	fff00593          	addi	x11,x0,-1
 150:	00000613          	addi	x12,x0,0
 154:	00c59733          	sll	x14,x11,x12
 158:	fff00393          	addi	x7,x0,-1
 15c:	4c771263          	bne	x14,x7,620 <fail>

00000160 <test_8>:
 160:	00800193          	addi	x3,x0,8
 164:	fff00593          	addi	x11,x0,-1
 168:	00100613          	addi	x12,x0,1
 16c:	00c59733          	sll	x14,x11,x12
 170:	ffe00393          	addi	x7,x0,-2
 174:	4a771663          	bne	x14,x7,620 <fail>

00000178 <test_9>:
 178:	00900193          	addi	x3,x0,9
 17c:	fff00593          	addi	x11,x0,-1
 180:	00700613          	addi	x12,x0,7
 184:	00c59733          	sll	x14,x11,x12
 188:	f8000393          	addi	x7,x0,-128
 18c:	48771a63          	bne	x14,x7,620 <fail>

00000190 <test_10>:
 190:	00a00193          	addi	x3,x0,10
 194:	fff00593          	addi	x11,x0,-1
 198:	00e00613          	addi	x12,x0,14
 19c:	00c59733          	sll	x14,x11,x12
 1a0:	ffffc3b7          	lui	x7,0xffffc
 1a4:	46771e63          	bne	x14,x7,620 <fail>

000001a8 <test_11>:
 1a8:	00b00193          	addi	x3,x0,11
 1ac:	fff00593          	addi	x11,x0,-1
 1b0:	01f00613          	addi	x12,x0,31
 1b4:	00c59733          	sll	x14,x11,x12
 1b8:	800003b7          	lui	x7,0x80000
 1bc:	46771263          	bne	x14,x7,620 <fail>

000001c0 <test_12>:
 1c0:	00c00193          	addi	x3,x0,12
 1c4:	212125b7          	lui	x11,0x21212
 1c8:	12158593          	addi	x11,x11,289 # 21212121 <_stack_top+0x1f211121>
 1cc:	00000613          	addi	x12,x0,0
 1d0:	00c59733          	sll	x14,x11,x12
 1d4:	212123b7          	lui	x7,0x21212
 1d8:	12138393          	addi	x7,x7,289 # 21212121 <_stack_top+0x1f211121>
 1dc:	44771263          	bne	x14,x7,620 <fail>

000001e0 <test_13>:
 1e0:	00d00193          	addi	x3,x0,13
 1e4:	212125b7          	lui	x11,0x21212
 1e8:	12158593          	addi	x11,x11,289 # 21212121 <_stack_top+0x1f211121>
 1ec:	00100613          	addi	x12,x0,1
 1f0:	00c59733          	sll	x14,x11,x12
 1f4:	424243b7          	lui	x7,0x42424
 1f8:	24238393          	addi	x7,x7,578 # 42424242 <_stack_top+0x40423242>
 1fc:	42771263          	bne	x14,x7,620 <fail>

00000200 <test_14>:
 200:	00e00193          	addi	x3,x0,14
 204:	212125b7          	lui	x11,0x21212
 208:	12158593          	addi	x11,x11,289 # 21212121 <_stack_top+0x1f211121>
 20c:	00700613          	addi	x12,x0,7
 210:	00c59733          	sll	x14,x11,x12
 214:	909093b7          	lui	x7,0x90909
 218:	08038393          	addi	x7,x7,128 # 90909080 <_stack_top+0x8e908080>
 21c:	40771263          	bne	x14,x7,620 <fail>

00000220 <test_15>:
 220:	00f00193          	addi	x3,x0,15
 224:	212125b7          	lui	x11,0x21212
 228:	12158593          	addi	x11,x11,289 # 21212121 <_stack_top+0x1f211121>
 22c:	00e00613          	addi	x12,x0,14
 230:	00c59733          	sll	x14,x11,x12
 234:	484843b7          	lui	x7,0x48484
 238:	3e771463          	bne	x14,x7,620 <fail>

0000023c <test_16>:
 23c:	01000193          	addi	x3,x0,16
 240:	212125b7          	lui	x11,0x21212
 244:	12158593          	addi	x11,x11,289 # 21212121 <_stack_top+0x1f211121>
 248:	01f00613          	addi	x12,x0,31
 24c:	00c59733          	sll	x14,x11,x12
 250:	800003b7          	lui	x7,0x80000
 254:	3c771663          	bne	x14,x7,620 <fail>

00000258 <test_17>:
 258:	01100193          	addi	x3,x0,17
 25c:	212125b7          	lui	x11,0x21212
 260:	12158593          	addi	x11,x11,289 # 21212121 <_stack_top+0x1f211121>
 264:	fc000613          	addi	x12,x0,-64
 268:	00c59733          	sll	x14,x11,x12
 26c:	212123b7          	lui	x7,0x21212
 270:	12138393          	addi	x7,x7,289 # 21212121 <_stack_top+0x1f211121>
 274:	3a771663          	bne	x14,x7,620 <fail>

00000278 <test_18>:
 278:	01200193          	addi	x3,x0,18
 27c:	212125b7          	lui	x11,0x21212
 280:	12158593          	addi	x11,x11,289 # 21212121 <_stack_top+0x1f211121>
 284:	fc100613          	addi	x12,x0,-63
 288:	00c59733          	sll	x14,x11,x12
 28c:	424243b7          	lui	x7,0x42424
 290:	24238393          	addi	x7,x7,578 # 42424242 <_stack_top+0x40423242>
 294:	38771663          	bne	x14,x7,620 <fail>

00000298 <test_19>:
 298:	01300193          	addi	x3,x0,19
 29c:	212125b7          	lui	x11,0x21212
 2a0:	12158593          	addi	x11,x11,289 # 21212121 <_stack_top+0x1f211121>
 2a4:	fc700613          	addi	x12,x0,-57
 2a8:	00c59733          	sll	x14,x11,x12
 2ac:	909093b7          	lui	x7,0x90909
 2b0:	08038393          	addi	x7,x7,128 # 90909080 <_stack_top+0x8e908080>
 2b4:	36771663          	bne	x14,x7,620 <fail>

000002b8 <test_20>:
 2b8:	01400193          	addi	x3,x0,20
 2bc:	212125b7          	lui	x11,0x21212
 2c0:	12158593          	addi	x11,x11,289 # 21212121 <_stack_top+0x1f211121>
 2c4:	fce00613          	addi	x12,x0,-50
 2c8:	00c59733          	sll	x14,x11,x12
 2cc:	484843b7          	lui	x7,0x48484
 2d0:	34771863          	bne	x14,x7,620 <fail>

000002d4 <test_22>:
 2d4:	01600193          	addi	x3,x0,22
 2d8:	00100593          	addi	x11,x0,1
 2dc:	00700613          	addi	x12,x0,7
 2e0:	00c595b3          	sll	x11,x11,x12
 2e4:	08000393          	addi	x7,x0,128
 2e8:	32759c63          	bne	x11,x7,620 <fail>

000002ec <test_23>:
 2ec:	01700193          	addi	x3,x0,23
 2f0:	00100593          	addi	x11,x0,1
 2f4:	00e00613          	addi	x12,x0,14
 2f8:	00c59633          	sll	x12,x11,x12
 2fc:	000043b7          	lui	x7,0x4
 300:	32761063          	bne	x12,x7,620 <fail>

00000304 <test_24>:
 304:	01800193          	addi	x3,x0,24
 308:	00300593          	addi	x11,x0,3
 30c:	00b595b3          	sll	x11,x11,x11
 310:	01800393          	addi	x7,x0,24
 314:	30759663          	bne	x11,x7,620 <fail>

00000318 <test_25>:
 318:	01900193          	addi	x3,x0,25
 31c:	00000213          	addi	x4,x0,0
 320:	00100093          	addi	x1,x0,1
 324:	00700113          	addi	x2,x0,7
 328:	00209733          	sll	x14,x1,x2
 32c:	00070313          	addi	x6,x14,0
 330:	00120213          	addi	x4,x4,1 # 1 <_start+0x1>
 334:	00200293          	addi	x5,x0,2
 338:	fe5214e3          	bne	x4,x5,320 <test_25+0x8>
 33c:	08000393          	addi	x7,x0,128
 340:	2e731063          	bne	x6,x7,620 <fail>

00000344 <test_26>:
 344:	01a00193          	addi	x3,x0,26
 348:	00000213          	addi	x4,x0,0
 34c:	00100093          	addi	x1,x0,1
 350:	00e00113          	addi	x2,x0,14
 354:	00209733          	sll	x14,x1,x2
 358:	00000013          	addi	x0,x0,0
 35c:	00070313          	addi	x6,x14,0
 360:	00120213          	addi	x4,x4,1 # 1 <_start+0x1>
 364:	00200293          	addi	x5,x0,2
 368:	fe5212e3          	bne	x4,x5,34c <test_26+0x8>
 36c:	000043b7          	lui	x7,0x4
 370:	2a731863          	bne	x6,x7,620 <fail>

00000374 <test_27>:
 374:	01b00193          	addi	x3,x0,27
 378:	00000213          	addi	x4,x0,0
 37c:	00100093          	addi	x1,x0,1
 380:	01f00113          	addi	x2,x0,31
 384:	00209733          	sll	x14,x1,x2
 388:	00000013          	addi	x0,x0,0
 38c:	00000013          	addi	x0,x0,0
 390:	00070313          	addi	x6,x14,0
 394:	00120213          	addi	x4,x4,1 # 1 <_start+0x1>
 398:	00200293          	addi	x5,x0,2
 39c:	fe5210e3          	bne	x4,x5,37c <test_27+0x8>
 3a0:	800003b7          	lui	x7,0x80000
 3a4:	26731e63          	bne	x6,x7,620 <fail>

000003a8 <test_28>:
 3a8:	01c00193          	addi	x3,x0,28
 3ac:	00000213          	addi	x4,x0,0
 3b0:	00100093          	addi	x1,x0,1
 3b4:	00700113          	addi	x2,x0,7
 3b8:	00209733          	sll	x14,x1,x2
 3bc:	00120213          	addi	x4,x4,1 # 1 <_start+0x1>
 3c0:	00200293          	addi	x5,x0,2
 3c4:	fe5216e3          	bne	x4,x5,3b0 <test_28+0x8>
 3c8:	08000393          	addi	x7,x0,128
 3cc:	24771a63          	bne	x14,x7,620 <fail>

000003d0 <test_29>:
 3d0:	01d00193          	addi	x3,x0,29
 3d4:	00000213          	addi	x4,x0,0
 3d8:	00100093          	addi	x1,x0,1
 3dc:	00e00113          	addi	x2,x0,14
 3e0:	00000013          	addi	x0,x0,0
 3e4:	00209733          	sll	x14,x1,x2
 3e8:	00120213          	addi	x4,x4,1 # 1 <_start+0x1>
 3ec:	00200293          	addi	x5,x0,2
 3f0:	fe5214e3          	bne	x4,x5,3d8 <test_29+0x8>
 3f4:	000043b7          	lui	x7,0x4
 3f8:	22771463          	bne	x14,x7,620 <fail>

000003fc <test_30>:
 3fc:	01e00193          	addi	x3,x0,30
 400:	00000213          	addi	x4,x0,0
 404:	00100093          	addi	x1,x0,1
 408:	01f00113          	addi	x2,x0,31
 40c:	00000013          	addi	x0,x0,0
 410:	00000013          	addi	x0,x0,0
 414:	00209733          	sll	x14,x1,x2
 418:	00120213          	addi	x4,x4,1 # 1 <_start+0x1>
 41c:	00200293          	addi	x5,x0,2
 420:	fe5212e3          	bne	x4,x5,404 <test_30+0x8>
 424:	800003b7          	lui	x7,0x80000
 428:	1e771c63          	bne	x14,x7,620 <fail>

0000042c <test_31>:
 42c:	01f00193          	addi	x3,x0,31
 430:	00000213          	addi	x4,x0,0
 434:	00100093          	addi	x1,x0,1
 438:	00000013          	addi	x0,x0,0
 43c:	00700113          	addi	x2,x0,7
 440:	00209733          	sll	x14,x1,x2
 444:	00120213          	addi	x4,x4,1 # 1 <_start+0x1>
 448:	00200293          	addi	x5,x0,2
 44c:	fe5214e3          	bne	x4,x5,434 <test_31+0x8>
 450:	08000393          	addi	x7,x0,128
 454:	1c771663          	bne	x14,x7,620 <fail>

00000458 <test_32>:
 458:	02000193          	addi	x3,x0,32
 45c:	00000213          	addi	x4,x0,0
 460:	00100093          	addi	x1,x0,1
 464:	00000013          	addi	x0,x0,0
 468:	00e00113          	addi	x2,x0,14
 46c:	00000013          	addi	x0,x0,0
 470:	00209733          	sll	x14,x1,x2
 474:	00120213          	addi	x4,x4,1 # 1 <_start+0x1>
 478:	00200293          	addi	x5,x0,2
 47c:	fe5212e3          	bne	x4,x5,460 <test_32+0x8>
 480:	000043b7          	lui	x7,0x4
 484:	18771e63          	bne	x14,x7,620 <fail>

00000488 <test_33>:
 488:	02100193          	addi	x3,x0,33
 48c:	00000213          	addi	x4,x0,0
 490:	00100093          	addi	x1,x0,1
 494:	00000013          	addi	x0,x0,0
 498:	00000013          	addi	x0,x0,0
 49c:	01f00113          	addi	x2,x0,31
 4a0:	00209733          	sll	x14,x1,x2
 4a4:	00120213          	addi	x4,x4,1 # 1 <_start+0x1>
 4a8:	00200293          	addi	x5,x0,2
 4ac:	fe5212e3          	bne	x4,x5,490 <test_33+0x8>
 4b0:	800003b7          	lui	x7,0x80000
 4b4:	16771663          	bne	x14,x7,620 <fail>

000004b8 <test_34>:
 4b8:	02200193          	addi	x3,x0,34
 4bc:	00000213          	addi	x4,x0,0
 4c0:	00700113          	addi	x2,x0,7
 4c4:	00100093          	addi	x1,x0,1
 4c8:	00209733          	sll	x14,x1,x2
 4cc:	00120213          	addi	x4,x4,1 # 1 <_start+0x1>
 4d0:	00200293          	addi	x5,x0,2
 4d4:	fe5216e3          	bne	x4,x5,4c0 <test_34+0x8>
 4d8:	08000393          	addi	x7,x0,128
 4dc:	14771263          	bne	x14,x7,620 <fail>

000004e0 <test_35>:
 4e0:	02300193          	addi	x3,x0,35
 4e4:	00000213          	addi	x4,x0,0
 4e8:	00e00113          	addi	x2,x0,14
 4ec:	00100093          	addi	x1,x0,1
 4f0:	00000013          	addi	x0,x0,0
 4f4:	00209733          	sll	x14,x1,x2
 4f8:	00120213          	addi	x4,x4,1 # 1 <_start+0x1>
 4fc:	00200293          	addi	x5,x0,2
 500:	fe5214e3          	bne	x4,x5,4e8 <test_35+0x8>
 504:	000043b7          	lui	x7,0x4
 508:	10771c63          	bne	x14,x7,620 <fail>

0000050c <test_36>:
 50c:	02400193          	addi	x3,x0,36
 510:	00000213          	addi	x4,x0,0
 514:	01f00113          	addi	x2,x0,31
 518:	00100093          	addi	x1,x0,1
 51c:	00000013          	addi	x0,x0,0
 520:	00000013          	addi	x0,x0,0
 524:	00209733          	sll	x14,x1,x2
 528:	00120213          	addi	x4,x4,1 # 1 <_start+0x1>
 52c:	00200293          	addi	x5,x0,2
 530:	fe5212e3          	bne	x4,x5,514 <test_36+0x8>
 534:	800003b7          	lui	x7,0x80000
 538:	0e771463          	bne	x14,x7,620 <fail>

0000053c <test_37>:
 53c:	02500193          	addi	x3,x0,37
 540:	00000213          	addi	x4,x0,0
 544:	00700113          	addi	x2,x0,7
 548:	00000013          	addi	x0,x0,0
 54c:	00100093          	addi	x1,x0,1
 550:	00209733          	sll	x14,x1,x2
 554:	00120213          	addi	x4,x4,1 # 1 <_start+0x1>
 558:	00200293          	addi	x5,x0,2
 55c:	fe5214e3          	bne	x4,x5,544 <test_37+0x8>
 560:	08000393          	addi	x7,x0,128
 564:	0a771e63          	bne	x14,x7,620 <fail>

00000568 <test_38>:
 568:	02600193          	addi	x3,x0,38
 56c:	00000213          	addi	x4,x0,0
 570:	00e00113          	addi	x2,x0,14
 574:	00000013          	addi	x0,x0,0
 578:	00100093          	addi	x1,x0,1
 57c:	00000013          	addi	x0,x0,0
 580:	00209733          	sll	x14,x1,x2
 584:	00120213          	addi	x4,x4,1 # 1 <_start+0x1>
 588:	00200293          	addi	x5,x0,2
 58c:	fe5212e3          	bne	x4,x5,570 <test_38+0x8>
 590:	000043b7          	lui	x7,0x4
 594:	08771663          	bne	x14,x7,620 <fail>

00000598 <test_39>:
 598:	02700193          	addi	x3,x0,39
 59c:	00000213          	addi	x4,x0,0
 5a0:	01f00113          	addi	x2,x0,31
 5a4:	00000013          	addi	x0,x0,0
 5a8:	00000013          	addi	x0,x0,0
 5ac:	00100093          	addi	x1,x0,1
 5b0:	00209733          	sll	x14,x1,x2
 5b4:	00120213          	addi	x4,x4,1 # 1 <_start+0x1>
 5b8:	00200293          	addi	x5,x0,2
 5bc:	fe5212e3          	bne	x4,x5,5a0 <test_39+0x8>
 5c0:	800003b7          	lui	x7,0x80000
 5c4:	04771e63          	bne	x14,x7,620 <fail>

000005c8 <test_40>:
 5c8:	02800193          	addi	x3,x0,40
 5cc:	00f00093          	addi	x1,x0,15
 5d0:	00101133          	sll	x2,x0,x1
 5d4:	00000393          	addi	x7,x0,0
 5d8:	04711463          	bne	x2,x7,620 <fail>

000005dc <test_41>:
 5dc:	02900193          	addi	x3,x0,41
 5e0:	02000093          	addi	x1,x0,32
 5e4:	00009133          	sll	x2,x1,x0
 5e8:	02000393          	addi	x7,x0,32
 5ec:	02711a63          	bne	x2,x7,620 <fail>

000005f0 <test_42>:
 5f0:	02a00193          	addi	x3,x0,42
 5f4:	000010b3          	sll	x1,x0,x0
 5f8:	00000393          	addi	x7,x0,0
 5fc:	02709263          	bne	x1,x7,620 <fail>

00000600 <test_43>:
 600:	02b00193          	addi	x3,x0,43
 604:	40000093          	addi	x1,x0,1024
 608:	00001137          	lui	x2,0x1
 60c:	80010113          	addi	x2,x2,-2048 # 800 <_etext+0x17c>
 610:	00209033          	sll	x0,x1,x2
 614:	00000393          	addi	x7,x0,0
 618:	00701463          	bne	x0,x7,620 <fail>
 61c:	00301e63          	bne	x0,x3,638 <pass>

00000620 <fail>:
 620:	00018063          	beq	x3,x0,620 <fail>
 624:	00018593          	addi	x11,x3,0
 628:	10200513          	addi	x10,x0,258
 62c:	01f01013          	slli	x0,x0,0x1f
 630:	00100073          	ebreak
 634:	40705013          	srai	x0,x0,0x7

00000638 <pass>:
 638:	00100193          	addi	x3,x0,1
 63c:	10100513          	addi	x10,x0,257
 640:	01f01013          	slli	x0,x0,0x1f
 644:	00100073          	ebreak
 648:	40705013          	srai	x0,x0,0x7
 64c:	00100073          	ebreak
	...
